target datalayout = "e-m:e-p270:32:32-p271:32:32-p272:64:64-i64:64-i128:128-f80:128-n8:16:32:64-S128"
target triple = "x86_64-pc-linux-gnu"

%struct.attype = type { i64, i8, i8 }

@.str.67 = private unnamed_addr constant [14 x i8] c"size overflow\00", align 1
@.str.130 = private unnamed_addr constant [17 x i8] c"integer overflow\00", align 1
@timecnt = internal global i64 0, align 8
@attypes = internal global ptr null, align 8
@timecnt_alloc = internal global i64 0, align 8

; Function Attrs: nounwind uwtable
define internal ptr @memcheck(ptr noundef %0) #0 {
  %2 = alloca ptr, align 8
  store ptr %0, ptr %2, align 8
  %3 = load ptr, ptr %2, align 8
  %4 = icmp eq ptr %3, null
  br i1 %4, label %5, label %9

5:                                                ; preds = %1
  %6 = call ptr @__errno_location() #16
  %7 = load i32, ptr %6, align 4
  %8 = call ptr @pg_strerror(i32 noundef %7)
  call void @memory_exhausted(ptr noundef %8) #15
  unreachable

9:                                                ; preds = %1
  %10 = load ptr, ptr %2, align 8
  ret ptr %10
}

; Function Attrs: nounwind uwtable
define internal ptr @erealloc(ptr noundef %0, i64 noundef %1) #0 {
  %3 = alloca ptr, align 8
  %4 = alloca i64, align 8
  store ptr %0, ptr %3, align 8
  store i64 %1, ptr %4, align 8
  %5 = load ptr, ptr %3, align 8
  %6 = load i64, ptr %4, align 8
  %7 = call ptr @realloc(ptr noundef %5, i64 noundef %6) #19
  %8 = call ptr @memcheck(ptr noundef %7)
  ret ptr %8
}

; Function Attrs: nounwind uwtable
define internal i64 @size_product(i64 noundef %0, i64 noundef %1) #0 {
  %3 = alloca i64, align 8
  %4 = alloca i64, align 8
  store i64 %0, ptr %3, align 8
  store i64 %1, ptr %4, align 8
  %5 = load i64, ptr %4, align 8
  %6 = udiv i64 -1, %5
  %7 = load i64, ptr %3, align 8
  %8 = icmp ult i64 %6, %7
  br i1 %8, label %9, label %10

9:                                                ; preds = %2
  call void @memory_exhausted(ptr noundef @.str.67) #15
  unreachable

10:                                               ; preds = %2
  %11 = load i64, ptr %3, align 8
  %12 = load i64, ptr %4, align 8
  %13 = mul i64 %11, %12
  ret i64 %13
}

; Function Attrs: nounwind uwtable
define internal ptr @growalloc(ptr noundef %0, i64 noundef %1, i64 noundef %2, ptr noundef %3) #0 {
  %5 = alloca ptr, align 8
  %6 = alloca ptr, align 8
  %7 = alloca i64, align 8
  %8 = alloca i64, align 8
  %9 = alloca ptr, align 8
  %10 = alloca i64, align 8
  %11 = alloca i64, align 8
  store ptr %0, ptr %6, align 8
  store i64 %1, ptr %7, align 8
  store i64 %2, ptr %8, align 8
  store ptr %3, ptr %9, align 8
  %12 = load i64, ptr %8, align 8
  %13 = load ptr, ptr %9, align 8
  %14 = load i64, ptr %13, align 8
  %15 = icmp slt i64 %12, %14
  br i1 %15, label %16, label %18

16:                                               ; preds = %4
  %17 = load ptr, ptr %6, align 8
  store ptr %17, ptr %5, align 8
  br label %48

18:                                               ; preds = %4
  call void @llvm.lifetime.start.p0(i64 8, ptr %10) #13
  store i64 9223372036854775806, ptr %10, align 8
  call void @llvm.lifetime.start.p0(i64 8, ptr %11) #13
  %19 = load i64, ptr %10, align 8
  %20 = icmp ult i64 %19, -1
  br i1 %20, label %21, label %23

21:                                               ; preds = %18
  %22 = load i64, ptr %10, align 8
  br label %24

23:                                               ; preds = %18
  br label %24

24:                                               ; preds = %23, %21
  %25 = phi i64 [ %22, %21 ], [ -1, %23 ]
  store i64 %25, ptr %11, align 8
  %26 = load i64, ptr %11, align 8
  %27 = sub i64 %26, 1
  %28 = sdiv i64 %27, 3
  %29 = mul i64 %28, 2
  %30 = load ptr, ptr %9, align 8
  %31 = load i64, ptr %30, align 8
  %32 = icmp slt i64 %29, %31
  br i1 %32, label %33, label %34

33:                                               ; preds = %24
  call void @memory_exhausted(ptr noundef @.str.130) #15
  unreachable

34:                                               ; preds = %24
  %35 = load ptr, ptr %9, align 8
  %36 = load i64, ptr %35, align 8
  %37 = ashr i64 %36, 1
  %38 = add i64 %37, 1
  %39 = load ptr, ptr %9, align 8
  %40 = load i64, ptr %39, align 8
  %41 = add i64 %40, %38
  store i64 %41, ptr %39, align 8
  %42 = load ptr, ptr %6, align 8
  %43 = load ptr, ptr %9, align 8
  %44 = load i64, ptr %43, align 8
  %45 = load i64, ptr %7, align 8
  %46 = call i64 @size_product(i64 noundef %44, i64 noundef %45)
  %47 = call ptr @erealloc(ptr noundef %42, i64 noundef %46)
  store ptr %47, ptr %5, align 8
  call void @llvm.lifetime.end.p0(i64 8, ptr %11) #13
  call void @llvm.lifetime.end.p0(i64 8, ptr %10) #13
  br label %48

48:                                               ; preds = %34, %16
  %49 = load ptr, ptr %5, align 8
  ret ptr %49
}

; Function Attrs: nounwind uwtable
define internal void @addtt(i64 noundef %0, i32 noundef %1) #0 {
  %3 = alloca i64, align 8
  %4 = alloca i32, align 4
  store i64 %0, ptr %3, align 8
  store i32 %1, ptr %4, align 4
  %5 = load ptr, ptr @attypes, align 8
  %6 = load i64, ptr @timecnt, align 8
  %7 = call ptr @growalloc(ptr noundef %5, i64 noundef 16, i64 noundef %6, ptr noundef @timecnt_alloc)
  store ptr %7, ptr @attypes, align 8
  %8 = load i64, ptr %3, align 8
  %9 = load ptr, ptr @attypes, align 8
  %10 = load i64, ptr @timecnt, align 8
  %11 = getelementptr inbounds %struct.attype, ptr %9, i64 %10
  %12 = getelementptr inbounds nuw %struct.attype, ptr %11, i32 0, i32 0
  store i64 %8, ptr %12, align 8
  %13 = load ptr, ptr @attypes, align 8
  %14 = load i64, ptr @timecnt, align 8
  %15 = getelementptr inbounds %struct.attype, ptr %13, i64 %14
  %16 = getelementptr inbounds nuw %struct.attype, ptr %15, i32 0, i32 1
  store i8 0, ptr %16, align 8
  %17 = load i32, ptr %4, align 4
  %18 = trunc i32 %17 to i8
  %19 = load ptr, ptr @attypes, align 8
  %20 = load i64, ptr @timecnt, align 8
  %21 = getelementptr inbounds %struct.attype, ptr %19, i64 %20
  %22 = getelementptr inbounds nuw %struct.attype, ptr %21, i32 0, i32 2
  store i8 %18, ptr %22, align 1
  %23 = load i64, ptr @timecnt, align 8
  %24 = add i64 %23, 1
  store i64 %24, ptr @timecnt, align 8
  ret void
}