; Function Attrs: nounwind uwtable
define internal fastcc void @addtt(i64 noundef %0, i32 noundef %1) unnamed_addr #0 {
  %3 = load ptr, ptr @attypes, align 8
  %4 = load i64, ptr @timecnt, align 8
  %5 = load i64, ptr @timecnt_alloc, align 8
  %6 = icmp slt i64 %4, %5
  br i1 %6, label %growalloc.exit, label %7

7:                                                ; preds = %2
  %8 = icmp sgt i64 %5, 6148914691236517202
  br i1 %8, label %9, label %10

9:                                                ; preds = %7
  tail call fastcc void @memory_exhausted(ptr noundef nonnull @.str.130) #30
  unreachable

10:                                               ; preds = %7
  %11 = ashr i64 %5, 1
  %12 = add nsw i64 %5, 1
  %13 = add i64 %12, %11
  store i64 %13, ptr @timecnt_alloc, align 8
  %mul.ov.i.i = icmp ugt i64 %13, 1152921504606846975
  br i1 %mul.ov.i.i, label %14, label %size_product.exit.i

14:                                               ; preds = %10
  tail call fastcc void @memory_exhausted(ptr noundef nonnull @.str.67) #30
  unreachable

size_product.exit.i:                              ; preds = %10
  %15 = shl nuw i64 %13, 4
  %16 = tail call ptr @realloc(ptr noundef %3, i64 noundef %15) #32
  %17 = icmp eq ptr %16, null
  br i1 %17, label %18, label %growalloc.exit

18:                                               ; preds = %size_product.exit.i
  %19 = tail call ptr @__errno_location() #28
  %20 = load i32, ptr %19, align 4
  %21 = tail call ptr @pg_strerror(i32 noundef %20) #26
  tail call fastcc void @memory_exhausted(ptr noundef %21) #30
  unreachable

growalloc.exit:                                   ; preds = %2, %size_product.exit.i
  %.0.i = phi ptr [ %3, %2 ], [ %16, %size_product.exit.i ]
  store ptr %.0.i, ptr @attypes, align 8
  %22 = getelementptr inbounds %struct.attype, ptr %.0.i, i64 %4
  store i64 %0, ptr %22, align 8
  %23 = getelementptr inbounds %struct.attype, ptr %.0.i, i64 %4, i32 1
  store i8 0, ptr %23, align 8
  %24 = trunc i32 %1 to i8
  %25 = getelementptr inbounds %struct.attype, ptr %.0.i, i64 %4, i32 2
  store i8 %24, ptr %25, align 1
  %26 = add i64 %4, 1
  store i64 %26, ptr @timecnt, align 8
  ret void
}